target datalayout = "e-m:e-p270:32:32-p271:32:32-p272:64:64-i64:64-i128:128-f80:128-n8:16:32:64-S128"
target triple = "x86_64-pc-linux-gnu"

%struct.hb_object_header_t = type { %struct.hb_reference_count_t, %struct.hb_atomic_int_t, %struct.hb_atomic_ptr_t }
%struct.hb_reference_count_t = type { %struct.hb_atomic_int_t }
%struct.hb_atomic_int_t = type { i32 }
%struct.hb_atomic_ptr_t = type { ptr }
%struct.hb_segment_properties_t = type { i32, i32, ptr, ptr, ptr }
%struct.hb_buffer_t = type <{ %struct.hb_object_header_t, ptr, i32, i32, i32, i32, i32, i32, %struct.hb_segment_properties_t, i8, i8, i8, i8, i32, i32, i32, i32, [4 x i8], ptr, ptr, ptr, [2 x [5 x i32]], [2 x i32], i8, i8, [2 x i8], i32, i32, i32, ptr, ptr, ptr, i32, [4 x i8] }>
%struct.hb_glyph_info_t = type { i32, i32, i32, %union._hb_var_int_t, %union._hb_var_int_t }
%union._hb_var_int_t = type { i32 }
%struct.hb_glyph_position_t = type { i32, i32, i32, i32, %union._hb_var_int_t }

; Function Attrs: mustprogress nounwind uwtable
define linkonce_odr hidden noundef i32 @_ZNK15hb_atomic_int_t11get_relaxedEv(ptr noundef nonnull align 4 dereferenceable(4) %0) #0 comdat align 2 {
  %2 = alloca ptr, align 8
  %3 = alloca i32, align 4
  store ptr %0, ptr %2, align 8
  %4 = load ptr, ptr %2, align 8
  %5 = getelementptr inbounds %struct.hb_atomic_int_t, ptr %4, i32 0, i32 0
  %6 = load atomic i32, ptr %5 monotonic, align 4
  store i32 %6, ptr %3, align 4
  %7 = load i32, ptr %3, align 4
  ret i32 %7
}

; Function Attrs: mustprogress uwtable
define linkonce_odr hidden noundef i32 @_ZNK15hb_atomic_int_tcviEv(ptr noundef nonnull align 4 dereferenceable(4) %0) #1 comdat align 2 {
  %2 = alloca ptr, align 8
  store ptr %0, ptr %2, align 8
  %3 = load ptr, ptr %2, align 8
  %4 = call noundef i32 @_ZNK15hb_atomic_int_t11get_relaxedEv(ptr noundef nonnull align 4 dereferenceable(4) %3)
  ret i32 %4
}

; Function Attrs: mustprogress nounwind uwtable
define linkonce_odr hidden void @_ZN11hb_buffer_t13clear_contextEj(ptr noundef nonnull align 8 dereferenceable(220) %0, i32 noundef %1) #0 comdat align 2 {
  %3 = alloca ptr, align 8
  %4 = alloca i32, align 4
  store ptr %0, ptr %3, align 8
  store i32 %1, ptr %4, align 4
  %5 = load ptr, ptr %3, align 8
  %6 = getelementptr inbounds %struct.hb_buffer_t, ptr %5, i32 0, i32 22
  %7 = load i32, ptr %4, align 4
  %8 = zext i32 %7 to i64
  %9 = getelementptr inbounds [2 x i32], ptr %6, i64 0, i64 %8
  store i32 0, ptr %9, align 4
  ret void
}

; Function Attrs: mustprogress nounwind uwtable
define internal noundef ptr @_ZL9hb_memsetPvij(ptr noundef %0, i32 noundef %1, i32 noundef %2) #0 {
  %4 = alloca ptr, align 8
  %5 = alloca ptr, align 8
  %6 = alloca i32, align 4
  %7 = alloca i32, align 4
  store ptr %0, ptr %5, align 8
  store i32 %1, ptr %6, align 4
  store i32 %2, ptr %7, align 4
  %8 = load i32, ptr %7, align 4
  %9 = icmp ne i32 %8, 0
  br i1 %9, label %12, label %10

10:                                               ; preds = %3
  %11 = load ptr, ptr %5, align 8
  store ptr %11, ptr %4, align 8
  br label %18

12:                                               ; preds = %3
  %13 = load ptr, ptr %5, align 8
  %14 = load i32, ptr %6, align 4
  %15 = trunc i32 %14 to i8
  %16 = load i32, ptr %7, align 4
  %17 = zext i32 %16 to i64
  call void @llvm.memset.p0.i64(ptr align 1 %13, i8 %15, i64 %17, i1 false)
  store ptr %13, ptr %4, align 8
  br label %18

18:                                               ; preds = %12, %10
  %19 = load ptr, ptr %4, align 8
  ret ptr %19
}

; Function Attrs: mustprogress uwtable
define linkonce_odr hidden noundef zeroext i1 @_ZN11hb_buffer_t6ensureEj(ptr noundef nonnull align 8 dereferenceable(220) %0, i32 noundef %1) #1 comdat align 2 {
  %3 = alloca ptr, align 8
  %4 = alloca i32, align 4
  store ptr %0, ptr %3, align 8
  store i32 %1, ptr %4, align 4
  %5 = load ptr, ptr %3, align 8
  %6 = load i32, ptr %4, align 4
  %7 = icmp ne i32 %6, 0
  br i1 %7, label %8, label %13

8:                                                ; preds = %2
  %9 = load i32, ptr %4, align 4
  %10 = getelementptr inbounds %struct.hb_buffer_t, ptr %5, i32 0, i32 16
  %11 = load i32, ptr %10, align 8
  %12 = icmp ult i32 %9, %11
  br i1 %12, label %13, label %14

13:                                               ; preds = %8, %2
  br label %17

14:                                               ; preds = %8
  %15 = load i32, ptr %4, align 4
  %16 = call noundef zeroext i1 @_ZN11hb_buffer_t7enlargeEj(ptr noundef nonnull align 8 dereferenceable(220) %5, i32 noundef %15)
  br label %17

17:                                               ; preds = %14, %13
  %18 = phi i1 [ true, %13 ], [ %16, %14 ]
  ret i1 %18
}

; Function Attrs: mustprogress uwtable
define internal noundef zeroext i1 @_ZL22hb_object_is_immutableI11hb_buffer_tEbPKT_(ptr noundef %0) #1 {
  %2 = alloca ptr, align 8
  store ptr %0, ptr %2, align 8
  %3 = load ptr, ptr %2, align 8
  %4 = getelementptr inbounds %struct.hb_buffer_t, ptr %3, i32 0, i32 0
  %5 = getelementptr inbounds %struct.hb_object_header_t, ptr %4, i32 0, i32 1
  %6 = call noundef i32 @_ZNK15hb_atomic_int_tcviEv(ptr noundef nonnull align 4 dereferenceable(4) %5)
  %7 = icmp ne i32 %6, 0
  %8 = xor i1 %7, true
  ret i1 %8
}

; Function Attrs: mustprogress uwtable
define hidden i32 @hb_buffer_set_length(ptr noundef %0, i32 noundef %1) #1 {
  %3 = alloca i32, align 4
  %4 = alloca ptr, align 8
  %5 = alloca i32, align 4
  store ptr %0, ptr %4, align 8
  store i32 %1, ptr %5, align 4
  %6 = load ptr, ptr %4, align 8
  %7 = call noundef zeroext i1 @_ZL22hb_object_is_immutableI11hb_buffer_tEbPKT_(ptr noundef %6)
  br i1 %7, label %8, label %12

8:                                                ; preds = %2
  %9 = load i32, ptr %5, align 4
  %10 = icmp eq i32 %9, 0
  %11 = zext i1 %10 to i32
  store i32 %11, ptr %3, align 4
  br label %76

12:                                               ; preds = %2
  %13 = load ptr, ptr %4, align 8
  %14 = load i32, ptr %5, align 4
  %15 = call noundef zeroext i1 @_ZN11hb_buffer_t6ensureEj(ptr noundef nonnull align 8 dereferenceable(220) %13, i32 noundef %14)
  br i1 %15, label %17, label %16

16:                                               ; preds = %12
  store i32 0, ptr %3, align 4
  br label %76

17:                                               ; preds = %12
  %18 = load i32, ptr %5, align 4
  %19 = load ptr, ptr %4, align 8
  %20 = getelementptr inbounds %struct.hb_buffer_t, ptr %19, i32 0, i32 14
  %21 = load i32, ptr %20, align 8
  %22 = icmp ugt i32 %18, %21
  br i1 %22, label %23, label %64

23:                                               ; preds = %17
  %24 = load ptr, ptr %4, align 8
  %25 = getelementptr inbounds %struct.hb_buffer_t, ptr %24, i32 0, i32 18
  %26 = load ptr, ptr %25, align 8
  %27 = load ptr, ptr %4, align 8
  %28 = getelementptr inbounds %struct.hb_buffer_t, ptr %27, i32 0, i32 14
  %29 = load i32, ptr %28, align 8
  %30 = zext i32 %29 to i64
  %31 = getelementptr inbounds %struct.hb_glyph_info_t, ptr %26, i64 %30
  %32 = load i32, ptr %5, align 4
  %33 = load ptr, ptr %4, align 8
  %34 = getelementptr inbounds %struct.hb_buffer_t, ptr %33, i32 0, i32 14
  %35 = load i32, ptr %34, align 8
  %36 = sub i32 %32, %35
  %37 = zext i32 %36 to i64
  %38 = mul i64 20, %37
  %39 = trunc i64 %38 to i32
  %40 = call noundef ptr @_ZL9hb_memsetPvij(ptr noundef %31, i32 noundef 0, i32 noundef %39)
  %41 = load ptr, ptr %4, align 8
  %42 = getelementptr inbounds %struct.hb_buffer_t, ptr %41, i32 0, i32 12
  %43 = load i8, ptr %42, align 1
  %44 = trunc i8 %43 to i1
  br i1 %44, label %45, label %63

45:                                               ; preds = %23
  %46 = load ptr, ptr %4, align 8
  %47 = getelementptr inbounds %struct.hb_buffer_t, ptr %46, i32 0, i32 20
  %48 = load ptr, ptr %47, align 8
  %49 = load ptr, ptr %4, align 8
  %50 = getelementptr inbounds %struct.hb_buffer_t, ptr %49, i32 0, i32 14
  %51 = load i32, ptr %50, align 8
  %52 = zext i32 %51 to i64
  %53 = getelementptr inbounds %struct.hb_glyph_position_t, ptr %48, i64 %52
  %54 = load i32, ptr %5, align 4
  %55 = load ptr, ptr %4, align 8
  %56 = getelementptr inbounds %struct.hb_buffer_t, ptr %55, i32 0, i32 14
  %57 = load i32, ptr %56, align 8
  %58 = sub i32 %54, %57
  %59 = zext i32 %58 to i64
  %60 = mul i64 20, %59
  %61 = trunc i64 %60 to i32
  %62 = call noundef ptr @_ZL9hb_memsetPvij(ptr noundef %53, i32 noundef 0, i32 noundef %61)
  br label %63

63:                                               ; preds = %45, %23
  br label %64

64:                                               ; preds = %63, %17
  %65 = load i32, ptr %5, align 4
  %66 = load ptr, ptr %4, align 8
  %67 = getelementptr inbounds %struct.hb_buffer_t, ptr %66, i32 0, i32 14
  store i32 %65, ptr %67, align 8
  %68 = load i32, ptr %5, align 4
  %69 = icmp ne i32 %68, 0
  br i1 %69, label %74, label %70

70:                                               ; preds = %64
  %71 = load ptr, ptr %4, align 8
  %72 = getelementptr inbounds %struct.hb_buffer_t, ptr %71, i32 0, i32 7
  store i32 0, ptr %72, align 4
  %73 = load ptr, ptr %4, align 8
  call void @_ZN11hb_buffer_t13clear_contextEj(ptr noundef nonnull align 8 dereferenceable(220) %73, i32 noundef 0)
  br label %74

74:                                               ; preds = %70, %64
  %75 = load ptr, ptr %4, align 8
  call void @_ZN11hb_buffer_t13clear_contextEj(ptr noundef nonnull align 8 dereferenceable(220) %75, i32 noundef 1)
  store i32 1, ptr %3, align 4
  br label %76

76:                                               ; preds = %74, %16, %8
  %77 = load i32, ptr %3, align 4
  ret i32 %77
}