; Function Attrs: mustprogress nounwind uwtable
define hidden range(i32 0, 2) i32 @hb_buffer_set_length(ptr nocapture noundef %0, i32 noundef %1) local_unnamed_addr #2 {
  %3 = getelementptr inbounds i8, ptr %0, i64 4
  %4 = load atomic i32, ptr %3 monotonic, align 4
  %.not.i = icmp eq i32 %4, 0
  %5 = icmp eq i32 %1, 0
  br i1 %.not.i, label %6, label %8

6:                                                ; preds = %2
  %7 = zext i1 %5 to i32
  br label %43

8:                                                ; preds = %2
  %9 = getelementptr inbounds i8, ptr %0, i64 96
  %10 = load i32, ptr %9, align 8
  %11 = icmp ugt i32 %10, %1
  %or.cond.i = select i1 %5, i1 true, i1 %11
  br i1 %or.cond.i, label %_ZN11hb_buffer_t6ensureEj.exit.thread, label %_ZN11hb_buffer_t6ensureEj.exit

_ZN11hb_buffer_t6ensureEj.exit:                   ; preds = %8
  %12 = tail call noundef zeroext i1 @_ZN11hb_buffer_t7enlargeEj(ptr noundef nonnull align 8 dereferenceable(220) %0, i32 noundef %1)
  br i1 %12, label %_ZN11hb_buffer_t6ensureEj.exit.thread, label %43

_ZN11hb_buffer_t6ensureEj.exit.thread:            ; preds = %8, %_ZN11hb_buffer_t6ensureEj.exit
  %13 = getelementptr inbounds i8, ptr %0, i64 88
  %14 = load i32, ptr %13, align 8
  %15 = icmp ult i32 %14, %1
  br i1 %15, label %16, label %_ZL9hb_memsetPvij.exit26

16:                                               ; preds = %_ZN11hb_buffer_t6ensureEj.exit.thread
  %17 = sub i32 %1, %14
  %18 = mul i32 %17, 20
  %.not.i24 = icmp eq i32 %18, 0
  br i1 %.not.i24, label %_ZL9hb_memsetPvij.exit, label %19

19:                                               ; preds = %16
  %20 = getelementptr inbounds i8, ptr %0, i64 104
  %21 = load ptr, ptr %20, align 8
  %22 = zext i32 %14 to i64
  %23 = getelementptr inbounds %struct.hb_glyph_info_t, ptr %21, i64 %22
  %24 = zext i32 %18 to i64
  tail call void @llvm.memset.p0.i64(ptr align 1 %23, i8 0, i64 %24, i1 false)
  br label %_ZL9hb_memsetPvij.exit

_ZL9hb_memsetPvij.exit:                           ; preds = %16, %19
  %25 = getelementptr inbounds i8, ptr %0, i64 83
  %26 = load i8, ptr %25, align 1
  %27 = trunc i8 %26 to i1
  br i1 %27, label %28, label %_ZL9hb_memsetPvij.exit26.thread

28:                                               ; preds = %_ZL9hb_memsetPvij.exit
  %29 = load i32, ptr %13, align 8
  %30 = sub i32 %1, %29
  %31 = mul i32 %30, 20
  %.not.i25 = icmp eq i32 %31, 0
  br i1 %.not.i25, label %_ZL9hb_memsetPvij.exit26.thread, label %32

32:                                               ; preds = %28
  %33 = getelementptr inbounds i8, ptr %0, i64 120
  %34 = load ptr, ptr %33, align 8
  %35 = zext i32 %29 to i64
  %36 = getelementptr inbounds %struct.hb_glyph_position_t, ptr %34, i64 %35
  %37 = zext i32 %31 to i64
  tail call void @llvm.memset.p0.i64(ptr align 1 %36, i8 0, i64 %37, i1 false)
  br label %_ZL9hb_memsetPvij.exit26.thread

_ZL9hb_memsetPvij.exit26.thread:                  ; preds = %32, %28, %_ZL9hb_memsetPvij.exit
  store i32 %1, ptr %13, align 8
  br label %41

_ZL9hb_memsetPvij.exit26:                         ; preds = %_ZN11hb_buffer_t6ensureEj.exit.thread
  store i32 %1, ptr %13, align 8
  br i1 %5, label %38, label %41

38:                                               ; preds = %_ZL9hb_memsetPvij.exit26
  %39 = getelementptr inbounds i8, ptr %0, i64 44
  store i32 0, ptr %39, align 4
  %40 = getelementptr inbounds i8, ptr %0, i64 168
  store i32 0, ptr %40, align 4
  br label %41

41:                                               ; preds = %_ZL9hb_memsetPvij.exit26.thread, %38, %_ZL9hb_memsetPvij.exit26
  %42 = getelementptr inbounds i8, ptr %0, i64 172
  store i32 0, ptr %42, align 4
  br label %43

43:                                               ; preds = %_ZN11hb_buffer_t6ensureEj.exit, %41, %6
  %.0 = phi i32 [ %7, %6 ], [ 1, %41 ], [ 0, %_ZN11hb_buffer_t6ensureEj.exit ]
  ret i32 %.0
}